; Function Attrs: mustprogress uwtable
define void @_ZN8QuantLib39ContinuousPartialFloatingLookbackOptionC2EddNS_4DateERKN5boost10shared_ptrINS_10TypePayoffEEERKNS3_INS_8ExerciseEEE(ptr noundef nonnull align 8 dereferenceable(248) %this, ptr noundef %vtt, double noundef %minmax, double noundef %lambda, i64 %lookbackPeriodEnd.coerce, ptr nocapture noundef nonnull readonly align 8 dereferenceable(16) %payoff, ptr noundef nonnull align 8 dereferenceable(16) %exercise) unnamed_addr #9 align 2 {
entry:
  %0 = getelementptr inbounds i8, ptr %vtt, i64 8
  tail call void @_ZN8QuantLib32ContinuousFloatingLookbackOptionC2EdRKN5boost10shared_ptrINS_10TypePayoffEEERKNS2_INS_8ExerciseEEE(ptr noundef nonnull align 8 dereferenceable(232) %this, ptr noundef nonnull %0, double noundef %minmax, ptr noundef nonnull align 8 dereferenceable(16) %payoff, ptr noundef nonnull align 8 dereferenceable(16) %exercise)
  %1 = load ptr, ptr %vtt, align 8
  store ptr %1, ptr %this, align 8, !tbaa !33
  %2 = getelementptr inbounds i8, ptr %vtt, i64 128
  %3 = load ptr, ptr %2, align 8
  %vbase.offset.ptr = getelementptr i8, ptr %1, i64 -24
  %vbase.offset = load i64, ptr %vbase.offset.ptr, align 8
  %add.ptr = getelementptr inbounds i8, ptr %this, i64 %vbase.offset
  store ptr %3, ptr %add.ptr, align 8, !tbaa !33
  %4 = getelementptr inbounds i8, ptr %vtt, i64 136
  %5 = load ptr, ptr %4, align 8
  %vtable3 = load ptr, ptr %this, align 8, !tbaa !33
  %vbase.offset.ptr4 = getelementptr i8, ptr %vtable3, i64 -32
  %vbase.offset5 = load i64, ptr %vbase.offset.ptr4, align 8
  %add.ptr6 = getelementptr inbounds i8, ptr %this, i64 %vbase.offset5
  store ptr %5, ptr %add.ptr6, align 8, !tbaa !33
  %lambda_ = getelementptr inbounds nuw i8, ptr %this, i64 232
  store double %lambda, ptr %lambda_, align 8, !tbaa !72
  %lookbackPeriodEnd_ = getelementptr inbounds nuw i8, ptr %this, i64 240
  store i64 %lookbackPeriodEnd.coerce, ptr %lookbackPeriodEnd_, align 8, !tbaa !47
  ret void
}